; Function Attrs: mustprogress uwtable
define hidden void @_ZNK4ncnn15Deconvolution1D11cut_paddingERKNS_3MatERS1_RKNS_6OptionE(ptr noundef nonnull readonly align 8 captures(none) dereferenceable(480) %0, ptr noundef nonnull align 8 dereferenceable(72) %1, ptr noundef nonnull align 8 dereferenceable(72) %2, ptr noundef nonnull align 8 dereferenceable(64) %3) local_unnamed_addr #1 align 2 {
  %5 = getelementptr inbounds nuw i8, ptr %0, i64 224
  %6 = load i32, ptr %5, align 8, !tbaa !37
  %7 = icmp sgt i32 %6, 0
  %.phi.trans.insert = getelementptr inbounds nuw i8, ptr %0, i64 228
  %.pre = load i32, ptr %.phi.trans.insert, align 4, !tbaa !38
  %8 = icmp sgt i32 %.pre, 0
  %or.cond21 = select i1 %7, i1 true, i1 %8
  br i1 %or.cond21, label %._crit_edge, label %9

._crit_edge:                                      ; preds = %4
  tail call void @_ZN4ncnn15copy_cut_borderERKNS_3MatERS0_iiiiRKNS_6OptionE(ptr noundef nonnull align 8 dereferenceable(72) %1, ptr noundef nonnull align 8 dereferenceable(72) %2, i32 noundef 0, i32 noundef 0, i32 noundef %6, i32 noundef %.pre, ptr noundef nonnull align 8 dereferenceable(64) %3)
  br label %_ZN4ncnn3MataSERKS0_.exit

9:                                                ; preds = %4
  %10 = getelementptr inbounds nuw i8, ptr %0, i64 236
  %11 = load i32, ptr %10, align 4, !tbaa !40
  %12 = icmp sgt i32 %11, 0
  br i1 %12, label %13, label %28

13:                                               ; preds = %9
  %14 = getelementptr inbounds nuw i8, ptr %1, i64 44
  %15 = load i32, ptr %14, align 4, !tbaa !47
  %16 = sub nsw i32 %15, %11
  %17 = icmp eq i32 %6, -233
  %18 = icmp eq i32 %.pre, -233
  %or.cond = or i1 %17, %18
  br i1 %or.cond, label %19, label %22

19:                                               ; preds = %13
  %20 = sdiv i32 %16, 2
  %21 = sub nsw i32 %16, %20
  tail call void @_ZN4ncnn15copy_cut_borderERKNS_3MatERS0_iiiiRKNS_6OptionE(ptr noundef nonnull align 8 dereferenceable(72) %1, ptr noundef nonnull align 8 dereferenceable(72) %2, i32 noundef 0, i32 noundef 0, i32 noundef %20, i32 noundef %21, ptr noundef nonnull align 8 dereferenceable(64) %3)
  br label %_ZN4ncnn3MataSERKS0_.exit

22:                                               ; preds = %13
  %23 = icmp eq i32 %6, -234
  %24 = icmp eq i32 %.pre, -234
  %or.cond20 = or i1 %23, %24
  br i1 %or.cond20, label %25, label %_ZN4ncnn3MataSERKS0_.exit

25:                                               ; preds = %22
  %26 = sdiv i32 %16, 2
  %27 = sub nsw i32 %16, %26
  tail call void @_ZN4ncnn15copy_cut_borderERKNS_3MatERS0_iiiiRKNS_6OptionE(ptr noundef nonnull align 8 dereferenceable(72) %1, ptr noundef nonnull align 8 dereferenceable(72) %2, i32 noundef 0, i32 noundef 0, i32 noundef %27, i32 noundef %26, ptr noundef nonnull align 8 dereferenceable(64) %3)
  br label %_ZN4ncnn3MataSERKS0_.exit

28:                                               ; preds = %9
  %29 = icmp eq ptr %2, %1
  br i1 %29, label %_ZN4ncnn3MataSERKS0_.exit, label %30

30:                                               ; preds = %28
  %31 = getelementptr inbounds nuw i8, ptr %1, i64 8
  %32 = load ptr, ptr %31, align 8, !tbaa !7
  %.not.i = icmp eq ptr %32, null
  br i1 %.not.i, label %35, label %33

33:                                               ; preds = %30
  %34 = atomicrmw add ptr %32, i32 1 acq_rel, align 4
  br label %35

35:                                               ; preds = %33, %30
  %36 = getelementptr inbounds nuw i8, ptr %2, i64 8
  %37 = load ptr, ptr %36, align 8, !tbaa !7
  %.not.i.i = icmp eq ptr %37, null
  br i1 %.not.i.i, label %_ZN4ncnn3Mat7releaseEv.exit.i, label %38

38:                                               ; preds = %35
  %39 = atomicrmw add ptr %37, i32 -1 acq_rel, align 4
  %40 = icmp eq i32 %39, 1
  br i1 %40, label %41, label %_ZN4ncnn3Mat7releaseEv.exit.i

41:                                               ; preds = %38
  %42 = getelementptr inbounds nuw i8, ptr %2, i64 32
  %43 = load ptr, ptr %42, align 8, !tbaa !15
  %.not3.i.i = icmp eq ptr %43, null
  %44 = load ptr, ptr %2, align 8, !tbaa !16
  br i1 %.not3.i.i, label %49, label %45

45:                                               ; preds = %41
  %46 = load ptr, ptr %43, align 8, !tbaa !4
  %47 = getelementptr inbounds nuw i8, ptr %46, i64 24
  %48 = load ptr, ptr %47, align 8
  tail call void %48(ptr noundef nonnull align 8 dereferenceable(8) %43, ptr noundef %44)
  br label %_ZN4ncnn3Mat7releaseEv.exit.i

49:                                               ; preds = %41
  %.not.i18.i = icmp eq ptr %44, null
  br i1 %.not.i18.i, label %_ZN4ncnn3Mat7releaseEv.exit.i, label %50

50:                                               ; preds = %49
  tail call void @free(ptr noundef nonnull %44) #10
  br label %_ZN4ncnn3Mat7releaseEv.exit.i

_ZN4ncnn3Mat7releaseEv.exit.i:                    ; preds = %49, %50, %45, %38, %35
  %51 = getelementptr inbounds nuw i8, ptr %2, i64 16
  %52 = getelementptr inbounds nuw i8, ptr %2, i64 24
  %53 = getelementptr inbounds nuw i8, ptr %2, i64 40
  %54 = getelementptr inbounds nuw i8, ptr %2, i64 44
  %55 = getelementptr inbounds nuw i8, ptr %2, i64 48
  %56 = getelementptr inbounds nuw i8, ptr %2, i64 52
  %57 = getelementptr inbounds nuw i8, ptr %2, i64 56
  %58 = getelementptr inbounds nuw i8, ptr %2, i64 64
  store i64 0, ptr %58, align 8, !tbaa !17
  tail call void @llvm.memset.p0.i64(ptr noundef nonnull align 8 dereferenceable(28) %2, i8 0, i64 28, i1 false)
  tail call void @llvm.memset.p0.i64(ptr noundef nonnull align 8 dereferenceable(20) %53, i8 0, i64 20, i1 false)
  %59 = load ptr, ptr %1, align 8, !tbaa !16
  store ptr %59, ptr %2, align 8, !tbaa !16
  %60 = load ptr, ptr %31, align 8, !tbaa !7
  store ptr %60, ptr %36, align 8, !tbaa !7
  %61 = getelementptr inbounds nuw i8, ptr %1, i64 16
  %62 = load i64, ptr %61, align 8, !tbaa !44
  store i64 %62, ptr %51, align 8, !tbaa !44
  %63 = getelementptr inbounds nuw i8, ptr %1, i64 24
  %64 = load i32, ptr %63, align 8, !tbaa !45
  store i32 %64, ptr %52, align 8, !tbaa !45
  %65 = getelementptr inbounds nuw i8, ptr %1, i64 32
  %66 = load ptr, ptr %65, align 8, !tbaa !15
  %67 = getelementptr inbounds nuw i8, ptr %2, i64 32
  store ptr %66, ptr %67, align 8, !tbaa !15
  %68 = getelementptr inbounds nuw i8, ptr %1, i64 40
  %69 = load i32, ptr %68, align 8, !tbaa !46
  store i32 %69, ptr %53, align 8, !tbaa !46
  %70 = getelementptr inbounds nuw i8, ptr %1, i64 44
  %71 = load i32, ptr %70, align 4, !tbaa !47
  store i32 %71, ptr %54, align 4, !tbaa !47
  %72 = getelementptr inbounds nuw i8, ptr %1, i64 48
  %73 = load i32, ptr %72, align 8, !tbaa !48
  store i32 %73, ptr %55, align 8, !tbaa !48
  %74 = getelementptr inbounds nuw i8, ptr %1, i64 52
  %75 = load i32, ptr %74, align 4, !tbaa !49
  store i32 %75, ptr %56, align 4, !tbaa !49
  %76 = getelementptr inbounds nuw i8, ptr %1, i64 56
  %77 = load i32, ptr %76, align 8, !tbaa !50
  store i32 %77, ptr %57, align 8, !tbaa !50
  %78 = getelementptr inbounds nuw i8, ptr %1, i64 64
  %79 = load i64, ptr %78, align 8, !tbaa !17
  store i64 %79, ptr %58, align 8, !tbaa !17
  br label %_ZN4ncnn3MataSERKS0_.exit

_ZN4ncnn3MataSERKS0_.exit:                        ; preds = %_ZN4ncnn3Mat7releaseEv.exit.i, %28, %19, %25, %22, %._crit_edge
  ret void
}